target datalayout = "e-m:e-p270:32:32-p271:32:32-p272:64:64-i64:64-i128:128-f80:128-n8:16:32:64-S128"
target triple = "x86_64-pc-linux-gnu"

%struct.pmix_shmem_t = type { %struct.pmix_object_t, i8, i64, ptr, ptr, [4097 x i8] }
%struct.pmix_object_t = type { %union.pthread_mutex_t, ptr, i32, %struct.pmix_tma }
%union.pthread_mutex_t = type { %struct.__pthread_mutex_s }
%struct.__pthread_mutex_s = type { i32, i32, i32, i32, i32, i16, i16, %struct.__pthread_internal_list }
%struct.__pthread_internal_list = type { ptr, ptr }
%struct.pmix_tma = type { ptr, ptr, ptr, ptr, ptr, ptr, ptr, ptr }
%struct.pmix_shmem_header_t = type { i32 }

@.str = private unnamed_addr constant [37 x i8] c"PMIX ERROR: %s in file %s at line %d\00", align 1
@.str.1 = private unnamed_addr constant [13 x i8] c"pmix_shmem.c\00", align 1

; Function Attrs: nounwind uwtable
define i32 @pmix_shmem_segment_detach(ptr noundef %0) #0 {
  %2 = alloca ptr, align 8
  %3 = alloca i32, align 4
  store ptr %0, ptr %2, align 8, !tbaa !3
  call void @llvm.lifetime.start.p0(i64 4, ptr %3) #7
  store i32 0, ptr %3, align 4, !tbaa !12
  %4 = load ptr, ptr %2, align 8, !tbaa !3
  %5 = icmp ne ptr %4, null
  br i1 %5, label %6, label %25

6:                                                ; preds = %1
  %7 = load ptr, ptr %2, align 8, !tbaa !3
  %8 = getelementptr inbounds nuw %struct.pmix_shmem_t, ptr %7, i32 0, i32 1
  %9 = load volatile i8, ptr %8, align 8, !tbaa !23, !range !27, !noundef !28
  %10 = trunc i8 %9 to i1
  br i1 %10, label %11, label %25

11:                                               ; preds = %6
  %12 = load ptr, ptr %2, align 8, !tbaa !3
  %13 = getelementptr inbounds nuw %struct.pmix_shmem_t, ptr %12, i32 0, i32 3
  %14 = load ptr, ptr %13, align 8, !tbaa !20
  %15 = load ptr, ptr %2, align 8, !tbaa !3
  %16 = getelementptr inbounds nuw %struct.pmix_shmem_t, ptr %15, i32 0, i32 2
  %17 = load i64, ptr %16, align 8, !tbaa !14
  %18 = call i32 @munmap(ptr noundef %14, i64 noundef %17) #7
  store i32 %18, ptr %3, align 4, !tbaa !12
  %19 = load ptr, ptr %2, align 8, !tbaa !3
  %20 = getelementptr inbounds nuw %struct.pmix_shmem_t, ptr %19, i32 0, i32 1
  store volatile i8 0, ptr %20, align 8, !tbaa !23
  %21 = load ptr, ptr %2, align 8, !tbaa !3
  %22 = getelementptr inbounds nuw %struct.pmix_shmem_t, ptr %21, i32 0, i32 3
  store ptr null, ptr %22, align 8, !tbaa !20
  %23 = load ptr, ptr %2, align 8, !tbaa !3
  %24 = getelementptr inbounds nuw %struct.pmix_shmem_t, ptr %23, i32 0, i32 4
  store ptr null, ptr %24, align 8, !tbaa !24
  br label %25

25:                                               ; preds = %11, %6, %1
  %26 = load i32, ptr %3, align 4, !tbaa !12
  %27 = icmp eq i32 0, %26
  %28 = select i1 %27, i32 0, i32 -1
  call void @llvm.lifetime.end.p0(i64 4, ptr %3) #7
  ret i32 %28
}

; Function Attrs: nounwind uwtable
define internal i64 @get_page_size() #0 {
  %1 = alloca i64, align 8
  %2 = alloca i64, align 8
  %3 = alloca i32, align 4
  call void @llvm.lifetime.start.p0(i64 8, ptr %2) #7
  %4 = call i64 @sysconf(i32 noundef 30) #7
  store i64 %4, ptr %2, align 8, !tbaa !8
  %5 = load i64, ptr %2, align 8, !tbaa !8
  %6 = icmp eq i64 -1, %5
  br i1 %6, label %7, label %12

7:                                                ; preds = %0
  br label %8

8:                                                ; preds = %7
  %9 = call ptr @PMIx_Error_string(i32 noundef -1)
  call void (i32, ptr, ...) @pmix_output(i32 noundef 0, ptr noundef @.str, ptr noundef %9, ptr noundef @.str.1, i32 noundef 240)
  br label %10

10:                                               ; preds = %8
  br label %11

11:                                               ; preds = %10
  store i64 0, ptr %1, align 8
  store i32 1, ptr %3, align 4
  br label %14

12:                                               ; preds = %0
  %13 = load i64, ptr %2, align 8, !tbaa !8
  store i64 %13, ptr %1, align 8
  store i32 1, ptr %3, align 4
  br label %14

14:                                               ; preds = %12, %11
  call void @llvm.lifetime.end.p0(i64 8, ptr %2) #7
  %15 = load i64, ptr %1, align 8
  ret i64 %15
}

; Function Attrs: nounwind uwtable
define internal i32 @add_internal_segment_header(ptr noundef %0) #0 {
  %2 = alloca i32, align 4
  %3 = alloca ptr, align 8
  %4 = alloca i32, align 4
  %5 = alloca i32, align 4
  %6 = alloca %struct.pmix_shmem_header_t, align 4
  store ptr %0, ptr %3, align 8, !tbaa !3
  call void @llvm.lifetime.start.p0(i64 4, ptr %4) #7
  store i32 0, ptr %4, align 4, !tbaa !12
  %7 = load ptr, ptr %3, align 8, !tbaa !3
  %8 = call i32 @segment_attach(ptr noundef %7, i64 noundef 0, i8 noundef zeroext 0)
  store i32 %8, ptr %4, align 4, !tbaa !12
  %9 = load i32, ptr %4, align 4, !tbaa !12
  %10 = icmp ne i32 0, %9
  br i1 %10, label %11, label %22

11:                                               ; preds = %1
  br label %12

12:                                               ; preds = %11
  %13 = load i32, ptr %4, align 4, !tbaa !12
  %14 = icmp ne i32 -2, %13
  br i1 %14, label %15, label %18

15:                                               ; preds = %12
  %16 = load i32, ptr %4, align 4, !tbaa !12
  %17 = call ptr @PMIx_Error_string(i32 noundef %16)
  call void (i32, ptr, ...) @pmix_output(i32 noundef 0, ptr noundef @.str, ptr noundef %17, ptr noundef @.str.1, i32 noundef 111)
  br label %18

18:                                               ; preds = %15, %12
  br label %19

19:                                               ; preds = %18
  br label %20

20:                                               ; preds = %19
  %21 = load i32, ptr %4, align 4, !tbaa !12
  store i32 %21, ptr %2, align 4
  store i32 1, ptr %5, align 4
  br label %28

22:                                               ; preds = %1
  call void @llvm.lifetime.start.p0(i64 4, ptr %6) #7
  call void @llvm.memset.p0.i64(ptr align 4 %6, i8 0, i64 4, i1 false)
  %23 = load ptr, ptr %3, align 8, !tbaa !3
  %24 = getelementptr inbounds nuw %struct.pmix_shmem_t, ptr %23, i32 0, i32 3
  %25 = load ptr, ptr %24, align 8, !tbaa !20
  call void @llvm.memmove.p0.p0.i64(ptr align 1 %25, ptr align 4 %6, i64 4, i1 false)
  %26 = load ptr, ptr %3, align 8, !tbaa !3
  %27 = call i32 @pmix_shmem_segment_detach(ptr noundef %26)
  store i32 %27, ptr %2, align 4
  store i32 1, ptr %5, align 4
  call void @llvm.lifetime.end.p0(i64 4, ptr %6) #7
  br label %28

28:                                               ; preds = %22, %20
  call void @llvm.lifetime.end.p0(i64 4, ptr %4) #7
  %29 = load i32, ptr %2, align 4
  ret i32 %29
}

; Function Attrs: nounwind uwtable
define i64 @pmix_shmem_utils_pad_to_page(i64 noundef %0) #0 {
  %2 = alloca i64, align 8
  %3 = alloca i64, align 8
  %4 = alloca i64, align 8
  store i64 %0, ptr %2, align 8, !tbaa !8
  call void @llvm.lifetime.start.p0(i64 8, ptr %3) #7
  %5 = call i64 @get_page_size()
  store i64 %5, ptr %3, align 8, !tbaa !8
  call void @llvm.lifetime.start.p0(i64 8, ptr %4) #7
  %6 = load i64, ptr %2, align 8, !tbaa !8
  %7 = xor i64 %6, -1
  %8 = load i64, ptr %3, align 8, !tbaa !8
  %9 = add i64 %7, %8
  %10 = add i64 %9, 1
  %11 = load i64, ptr %3, align 8, !tbaa !8
  %12 = sub i64 %11, 1
  %13 = and i64 %10, %12
  store i64 %13, ptr %4, align 8, !tbaa !8
  %14 = load i64, ptr %2, align 8, !tbaa !8
  %15 = load i64, ptr %4, align 8, !tbaa !8
  %16 = add i64 %14, %15
  call void @llvm.lifetime.end.p0(i64 8, ptr %4) #7
  call void @llvm.lifetime.end.p0(i64 8, ptr %3) #7
  ret i64 %16
}

; Function Attrs: nounwind uwtable
define i32 @pmix_shmem_segment_create(ptr noundef %0, i64 noundef %1, ptr noundef %2) #0 {
  %4 = alloca ptr, align 8
  %5 = alloca i64, align 8
  %6 = alloca ptr, align 8
  %7 = alloca i32, align 4
  %8 = alloca i64, align 8
  %9 = alloca i32, align 4
  store ptr %0, ptr %4, align 8, !tbaa !3
  store i64 %1, ptr %5, align 8, !tbaa !8
  store ptr %2, ptr %6, align 8, !tbaa !10
  call void @llvm.lifetime.start.p0(i64 4, ptr %7) #7
  store i32 0, ptr %7, align 4, !tbaa !12
  call void @llvm.lifetime.start.p0(i64 8, ptr %8) #7
  %10 = load i64, ptr %5, align 8, !tbaa !8
  %11 = add i64 %10, 4
  %12 = call i64 @pmix_shmem_utils_pad_to_page(i64 noundef %11)
  store i64 %12, ptr %8, align 8, !tbaa !8
  call void @llvm.lifetime.start.p0(i64 4, ptr %9) #7
  %13 = load ptr, ptr %6, align 8, !tbaa !10
  %14 = call i32 (ptr, i32, ...) @open(ptr noundef %13, i32 noundef 66, i32 noundef 384)
  store i32 %14, ptr %9, align 4, !tbaa !12
  %15 = load i32, ptr %9, align 4, !tbaa !12
  %16 = icmp eq i32 %15, -1
  br i1 %16, label %17, label %18

17:                                               ; preds = %3
  store i32 -67, ptr %7, align 4, !tbaa !12
  br label %34

18:                                               ; preds = %3
  %19 = load i32, ptr %9, align 4, !tbaa !12
  %20 = load i64, ptr %8, align 8, !tbaa !8
  %21 = call i32 @ftruncate(i32 noundef %19, i64 noundef %20) #7
  %22 = icmp ne i32 0, %21
  br i1 %22, label %23, label %24

23:                                               ; preds = %18
  store i32 -1, ptr %7, align 4, !tbaa !12
  br label %34

24:                                               ; preds = %18
  %25 = load i64, ptr %8, align 8, !tbaa !8
  %26 = load ptr, ptr %4, align 8, !tbaa !3
  %27 = getelementptr inbounds nuw %struct.pmix_shmem_t, ptr %26, i32 0, i32 2
  store i64 %25, ptr %27, align 8, !tbaa !14
  %28 = load ptr, ptr %4, align 8, !tbaa !3
  %29 = getelementptr inbounds nuw %struct.pmix_shmem_t, ptr %28, i32 0, i32 5
  %30 = getelementptr inbounds [4097 x i8], ptr %29, i64 0, i64 0
  %31 = load ptr, ptr %6, align 8, !tbaa !10
  call void @pmix_string_copy(ptr noundef %30, ptr noundef %31, i64 noundef 4097)
  %32 = load ptr, ptr %4, align 8, !tbaa !3
  %33 = call i32 @add_internal_segment_header(ptr noundef %32)
  store i32 %33, ptr %7, align 4, !tbaa !12
  br label %34

34:                                               ; preds = %24, %23, %17
  %35 = load i32, ptr %9, align 4, !tbaa !12
  %36 = icmp ne i32 -1, %35
  br i1 %36, label %37, label %40

37:                                               ; preds = %34
  %38 = load i32, ptr %9, align 4, !tbaa !12
  %39 = call i32 @close(i32 noundef %38)
  br label %40

40:                                               ; preds = %37, %34
  %41 = load i32, ptr %7, align 4, !tbaa !12
  %42 = icmp ne i32 0, %41
  br i1 %42, label %43, label %53

43:                                               ; preds = %40
  br label %44

44:                                               ; preds = %43
  %45 = load i32, ptr %7, align 4, !tbaa !12
  %46 = icmp ne i32 -2, %45
  br i1 %46, label %47, label %50

47:                                               ; preds = %44
  %48 = load i32, ptr %7, align 4, !tbaa !12
  %49 = call ptr @PMIx_Error_string(i32 noundef %48)
  call void (i32, ptr, ...) @pmix_output(i32 noundef 0, ptr noundef @.str, ptr noundef %49, ptr noundef @.str.1, i32 noundef 156)
  br label %50

50:                                               ; preds = %47, %44
  br label %51

51:                                               ; preds = %50
  br label %52

52:                                               ; preds = %51
  br label %53

53:                                               ; preds = %52, %40
  %54 = load i32, ptr %7, align 4, !tbaa !12
  call void @llvm.lifetime.end.p0(i64 4, ptr %9) #7
  call void @llvm.lifetime.end.p0(i64 8, ptr %8) #7
  call void @llvm.lifetime.end.p0(i64 4, ptr %7) #7
  ret i32 %54
}