; Function Attrs: nounwind uwtable
define range(i32 -67, 1) i32 @pmix_shmem_segment_create(ptr noundef %0, i64 noundef %1, ptr noundef %2) local_unnamed_addr #0 {
  %4 = add i64 %1, 4
  %5 = tail call i64 @sysconf(i32 noundef 30) #8
  %6 = icmp eq i64 %5, -1
  br i1 %6, label %7, label %pmix_shmem_utils_pad_to_page.exit

7:                                                ; preds = %3
  %8 = tail call ptr @PMIx_Error_string(i32 noundef -1) #8
  tail call void (i32, ptr, ...) @pmix_output(i32 noundef 0, ptr noundef nonnull @.str, ptr noundef %8, ptr noundef nonnull @.str.1, i32 noundef 240) #8
  br label %pmix_shmem_utils_pad_to_page.exit

pmix_shmem_utils_pad_to_page.exit:                ; preds = %3, %7
  %.0.i.i = phi i64 [ 0, %7 ], [ %5, %3 ]
  %9 = sub i64 %.0.i.i, %4
  %10 = add i64 %.0.i.i, -1
  %11 = and i64 %9, %10
  %12 = add i64 %11, %4
  %13 = tail call i32 (ptr, i32, ...) @open(ptr noundef %2, i32 noundef 66, i32 noundef 384) #8
  %14 = icmp eq i32 %13, -1
  br i1 %14, label %add_internal_segment_header.exit.thread21, label %15

15:                                               ; preds = %pmix_shmem_utils_pad_to_page.exit
  %16 = tail call i32 @ftruncate(i32 noundef %13, i64 noundef %12) #8
  %.not = icmp eq i32 %16, 0
  br i1 %.not, label %18, label %add_internal_segment_header.exit.thread28

add_internal_segment_header.exit.thread28:        ; preds = %15
  %17 = tail call i32 @close(i32 noundef %13) #8
  br label %add_internal_segment_header.exit.thread21

18:                                               ; preds = %15
  %19 = getelementptr inbounds nuw i8, ptr %0, i64 128
  store i64 %12, ptr %19, align 8, !tbaa !3
  %20 = getelementptr inbounds nuw i8, ptr %0, i64 152
  tail call void @pmix_string_copy(ptr noundef nonnull %20, ptr noundef %2, i64 noundef 4097) #8
  %21 = tail call fastcc i32 @segment_attach(ptr noundef %0, i64 noundef 0, i8 noundef zeroext 0)
  switch i32 %21, label %22 [
    i32 0, label %24
    i32 -2, label %add_internal_segment_header.exit.thread26
  ]

22:                                               ; preds = %18
  %23 = tail call ptr @PMIx_Error_string(i32 noundef %21) #8
  tail call void (i32, ptr, ...) @pmix_output(i32 noundef 0, ptr noundef nonnull @.str, ptr noundef %23, ptr noundef nonnull @.str.1, i32 noundef 111) #8
  br label %add_internal_segment_header.exit

24:                                               ; preds = %18
  %25 = getelementptr inbounds nuw i8, ptr %0, i64 136
  %26 = load ptr, ptr %25, align 8, !tbaa !14
  store i32 0, ptr %26, align 1
  %27 = getelementptr inbounds nuw i8, ptr %0, i64 120
  %28 = load volatile i8, ptr %27, align 8, !tbaa !15, !range !16, !noundef !17
  %29 = trunc nuw i8 %28 to i1
  br i1 %29, label %30, label %add_internal_segment_header.exit.thread26

30:                                               ; preds = %24
  %31 = load ptr, ptr %25, align 8, !tbaa !14
  %32 = load i64, ptr %19, align 8, !tbaa !3
  %33 = tail call i32 @munmap(ptr noundef %31, i64 noundef %32) #8
  store volatile i8 0, ptr %27, align 8, !tbaa !15
  %34 = icmp ne i32 %33, 0
  %35 = sext i1 %34 to i32
  tail call void @llvm.memset.p0.i64(ptr noundef nonnull align 8 dereferenceable(16) %25, i8 0, i64 16, i1 false)
  br label %add_internal_segment_header.exit

add_internal_segment_header.exit.thread26:        ; preds = %24, %18
  %36 = tail call i32 @close(i32 noundef %13) #8
  br label %39

add_internal_segment_header.exit:                 ; preds = %22, %30
  %.0.ph = phi i32 [ %35, %30 ], [ %21, %22 ]
  %37 = tail call i32 @close(i32 noundef %13) #8
  switch i32 %.0.ph, label %add_internal_segment_header.exit.thread21 [
    i32 -2, label %39
    i32 0, label %39
  ]

add_internal_segment_header.exit.thread21:        ; preds = %pmix_shmem_utils_pad_to_page.exit, %add_internal_segment_header.exit.thread28, %add_internal_segment_header.exit
  %.02024 = phi i32 [ %.0.ph, %add_internal_segment_header.exit ], [ -1, %add_internal_segment_header.exit.thread28 ], [ -67, %pmix_shmem_utils_pad_to_page.exit ]
  %38 = tail call ptr @PMIx_Error_string(i32 noundef %.02024) #8
  tail call void (i32, ptr, ...) @pmix_output(i32 noundef 0, ptr noundef nonnull @.str, ptr noundef %38, ptr noundef nonnull @.str.1, i32 noundef 156) #8
  br label %39

39:                                               ; preds = %add_internal_segment_header.exit.thread26, %add_internal_segment_header.exit, %add_internal_segment_header.exit, %add_internal_segment_header.exit.thread21
  %.02023 = phi i32 [ %.0.ph, %add_internal_segment_header.exit ], [ %.0.ph, %add_internal_segment_header.exit ], [ %.02024, %add_internal_segment_header.exit.thread21 ], [ %21, %add_internal_segment_header.exit.thread26 ]
  ret i32 %.02023
}